; ModuleID = '7/1119.c'
source_filename = "7/1119.c"
target datalayout = "e-m:e-p270:32:32-p271:32:32-p272:64:64-i64:64-f80:128-n8:16:32:64-S128"
target triple = "x86_64-pc-linux-gnu"

@.str = private unnamed_addr constant [7 x i8] c"%s%s%s\00", align 1
@.str.1 = private unnamed_addr constant [4 x i8] c"%s\0A\00", align 1

; Function Attrs: noinline nounwind uwtable
define dso_local i32 @main() #0 {
  %1 = alloca i32, align 4
  %2 = alloca [260 x i8], align 16
  %3 = alloca [260 x i8], align 16
  %4 = alloca [260 x i8], align 16
  %5 = alloca i32, align 4
  %6 = alloca i32, align 4
  %7 = alloca i32, align 4
  %8 = alloca i32, align 4
  %9 = alloca i32, align 4
  %10 = alloca i32, align 4
  %11 = alloca i32, align 4
  %12 = alloca i32, align 4
  %13 = alloca i32, align 4
  store i32 0, i32* %1, align 4
  store i32 0, i32* %7, align 4
  %14 = getelementptr inbounds [260 x i8], [260 x i8]* %3, i64 0, i64 0
  %15 = getelementptr inbounds [260 x i8], [260 x i8]* %2, i64 0, i64 0
  %16 = getelementptr inbounds [260 x i8], [260 x i8]* %4, i64 0, i64 0
  %17 = call i32 (i8*, ...) @__isoc99_scanf(i8* getelementptr inbounds ([7 x i8], [7 x i8]* @.str, i64 0, i64 0), i8* %14, i8* %15, i8* %16)
  %18 = getelementptr inbounds [260 x i8], [260 x i8]* %2, i64 0, i64 0
  %19 = call i64 @strlen(i8* %18) #3
  %20 = trunc i64 %19 to i32
  store i32 %20, i32* %8, align 4
  %21 = getelementptr inbounds [260 x i8], [260 x i8]* %3, i64 0, i64 0
  %22 = call i64 @strlen(i8* %21) #3
  %23 = trunc i64 %22 to i32
  store i32 %23, i32* %9, align 4
  store i32 0, i32* %5, align 4
  br label %24

24:                                               ; preds = %93, %0
  %25 = load i32, i32* %5, align 4
  %26 = load i32, i32* %9, align 4
  %27 = icmp slt i32 %25, %26
  br i1 %27, label %28, label %96

28:                                               ; preds = %24
  store i32 1, i32* %10, align 4
  store i32 1, i32* %13, align 4
  %29 = load i32, i32* %5, align 4
  %30 = sext i32 %29 to i64
  %31 = getelementptr inbounds [260 x i8], [260 x i8]* %3, i64 0, i64 %30
  %32 = load i8, i8* %31, align 1
  %33 = sext i8 %32 to i32
  %34 = getelementptr inbounds [260 x i8], [260 x i8]* %2, i64 0, i64 0
  %35 = load i8, i8* %34, align 16
  %36 = sext i8 %35 to i32
  %37 = icmp eq i32 %33, %36
  br i1 %37, label %38, label %88

38:                                               ; preds = %28
  %39 = load i32, i32* %5, align 4
  %40 = add nsw i32 %39, 1
  store i32 %40, i32* %7, align 4
  store i32 1, i32* %6, align 4
  br label %41

41:                                               ; preds = %60, %38
  %42 = load i32, i32* %6, align 4
  %43 = load i32, i32* %8, align 4
  %44 = icmp slt i32 %42, %43
  br i1 %44, label %45, label %63

45:                                               ; preds = %41
  %46 = load i32, i32* %7, align 4
  %47 = add nsw i32 %46, 1
  store i32 %47, i32* %7, align 4
  %48 = sext i32 %46 to i64
  %49 = getelementptr inbounds [260 x i8], [260 x i8]* %3, i64 0, i64 %48
  %50 = load i8, i8* %49, align 1
  %51 = sext i8 %50 to i32
  %52 = load i32, i32* %6, align 4
  %53 = sext i32 %52 to i64
  %54 = getelementptr inbounds [260 x i8], [260 x i8]* %2, i64 0, i64 %53
  %55 = load i8, i8* %54, align 1
  %56 = sext i8 %55 to i32
  %57 = icmp ne i32 %51, %56
  br i1 %57, label %58, label %59

58:                                               ; preds = %45
  store i32 0, i32* %10, align 4
  br label %63

59:                                               ; preds = %45
  br label %60

60:                                               ; preds = %59
  %61 = load i32, i32* %6, align 4
  %62 = add nsw i32 %61, 1
  store i32 %62, i32* %6, align 4
  br label %41

63:                                               ; preds = %58, %41
  %64 = load i32, i32* %10, align 4
  %65 = icmp eq i32 %64, 1
  br i1 %65, label %66, label %87

66:                                               ; preds = %63
  store i32 0, i32* %12, align 4
  %67 = load i32, i32* %5, align 4
  store i32 %67, i32* %11, align 4
  br label %68

68:                                               ; preds = %83, %66
  %69 = load i32, i32* %11, align 4
  %70 = load i32, i32* %5, align 4
  %71 = load i32, i32* %8, align 4
  %72 = add nsw i32 %70, %71
  %73 = icmp slt i32 %69, %72
  br i1 %73, label %74, label %86

74:                                               ; preds = %68
  %75 = load i32, i32* %12, align 4
  %76 = add nsw i32 %75, 1
  store i32 %76, i32* %12, align 4
  %77 = sext i32 %75 to i64
  %78 = getelementptr inbounds [260 x i8], [260 x i8]* %4, i64 0, i64 %77
  %79 = load i8, i8* %78, align 1
  %80 = load i32, i32* %11, align 4
  %81 = sext i32 %80 to i64
  %82 = getelementptr inbounds [260 x i8], [260 x i8]* %3, i64 0, i64 %81
  store i8 %79, i8* %82, align 1
  br label %83

83:                                               ; preds = %74
  %84 = load i32, i32* %11, align 4
  %85 = add nsw i32 %84, 1
  store i32 %85, i32* %11, align 4
  br label %68

86:                                               ; preds = %68
  store i32 0, i32* %13, align 4
  br label %87

87:                                               ; preds = %86, %63
  br label %88

88:                                               ; preds = %87, %28
  %89 = load i32, i32* %13, align 4
  %90 = icmp eq i32 %89, 0
  br i1 %90, label %91, label %92

91:                                               ; preds = %88
  br label %96

92:                                               ; preds = %88
  br label %93

93:                                               ; preds = %92
  %94 = load i32, i32* %5, align 4
  %95 = add nsw i32 %94, 1
  store i32 %95, i32* %5, align 4
  br label %24

96:                                               ; preds = %91, %24
  %97 = getelementptr inbounds [260 x i8], [260 x i8]* %3, i64 0, i64 0
  %98 = call i32 (i8*, ...) @printf(i8* getelementptr inbounds ([4 x i8], [4 x i8]* @.str.1, i64 0, i64 0), i8* %97)
  ret i32 0
}

declare dso_local i32 @__isoc99_scanf(i8*, ...) #1

; Function Attrs: nounwind readonly
declare dso_local i64 @strlen(i8*) #2

declare dso_local i32 @printf(i8*, ...) #1


!llvm.module.flags = !{!0}
!llvm.ident = !{!1}

!0 = !{i32 1, !"wchar_size", i32 4}
!1 = !{!"clang version 10.0.0-4ubuntu1 "}
